Certificate:
    Data:
        Version: 3 (0x2)
        Serial Number: 1 (0x1)
        Signature Algorithm: sha256WithRSAEncryption
        Issuer: C=AU, ST=RU, O=Internet Widgits Pty Ltd, CN=WSR CA
        Validity
            Not Before: Oct 14 11:21:05 2021 GMT
            Not After : Oct 14 11:21:05 2022 GMT
        Subject: C=AU, ST=Some-State, O=Internet Widgits Pty Ltd, CN=site.unakbars.ru
        Subject Public Key Info:
            Public Key Algorithm: rsaEncryption
                RSA Public-Key: (2048 bit)
                Modulus:
                    00:a4:51:6b:93:6a:8d:49:74:c7:d7:a2:97:f7:83:
                    f2:45:dc:50:c4:db:81:3c:91:ad:48:0d:91:ec:59:
                    65:9e:aa:d2:c5:07:bc:c4:a2:a8:0d:9d:b7:01:30:
                    ec:5e:e7:d3:31:67:10:a5:7a:bf:8c:76:c6:35:8e:
                    11:b6:34:a1:f9:e5:66:74:fe:25:b7:d5:03:26:30:
                    42:17:e2:ef:45:08:9c:ca:8c:71:2b:8f:27:6c:01:
                    3d:53:90:2d:1e:91:9b:20:d9:9d:59:c6:0e:79:f3:
                    ee:5e:9d:8d:eb:85:ce:c7:fa:86:57:15:07:d7:1b:
                    df:6a:c2:01:2b:7d:1c:1d:be:57:f5:d2:bd:5e:a6:
                    46:e5:23:f4:e2:23:9e:f9:4b:32:90:28:bb:5c:0f:
                    e0:6a:18:c0:7c:c6:73:b8:59:ba:80:2f:99:32:d1:
                    22:64:89:0c:f3:01:34:10:4b:4f:f4:11:63:eb:ef:
                    41:91:a1:81:d5:46:8b:0a:d3:d2:db:4e:1f:cd:b2:
                    5b:69:ca:59:46:33:ec:91:12:7d:49:ce:14:3c:68:
                    63:4e:71:10:1d:b2:97:11:86:42:8c:87:e6:a2:cb:
                    ca:e1:4f:30:2a:8d:f3:cc:7f:76:67:19:4a:d8:8a:
                    0b:57:83:9d:00:85:ea:ba:ee:dd:d3:d3:d5:f9:d5:
                    7d:db
                Exponent: 65537 (0x10001)
        X509v3 extensions:
            X509v3 Basic Constraints: 
                CA:FALSE
            Netscape Comment: 
                OpenSSL Generated Certificate
            X509v3 Subject Key Identifier: 
                D2:41:EF:0B:EB:95:50:C7:6E:EB:CB:9E:45:B6:F5:2D:EF:DA:53:16
            X509v3 Authority Key Identifier: 
                DirName:/C=AU/ST=RU/O=Internet Widgits Pty Ltd/CN=WSR CA
                serial:73:35:16:9D:71:F7:0A:21:C0:2A:B9:F0:52:2F:82:4C:7C:F9:95:E0

    Signature Algorithm: sha256WithRSAEncryption
         36:50:1e:59:24:e0:64:0d:15:ff:4e:09:db:a0:4e:85:e0:1e:
         7a:ab:b0:55:66:0c:fa:6c:60:eb:55:98:99:a7:55:5b:6e:ae:
         82:4b:c6:0a:11:42:5d:de:15:9b:f5:76:a1:0d:cc:c0:03:d3:
         2b:62:b6:1b:60:21:a0:d0:69:4f:64:85:76:1b:90:24:4b:2c:
         0b:77:4a:cf:2c:86:7a:08:8d:48:e4:9c:19:bd:4c:8d:1d:e6:
         2e:a0:f2:46:66:84:3c:57:c7:29:75:c7:7d:9a:7e:e4:63:a8:
         96:cb:06:11:18:c1:dd:d3:46:c8:84:5e:1a:ec:0b:9e:9d:03:
         58:1d:06:e0:bd:9c:6f:87:52:1f:a1:75:4c:8f:56:67:dc:70:
         71:a4:07:69:b5:a3:d6:ef:cf:89:2d:de:ba:c3:de:a9:87:c8:
         30:71:ce:34:f7:86:b1:28:b6:51:5d:f8:49:bc:91:ec:0e:02:
         29:e6:4e:72:3b:17:9f:fa:67:34:52:b8:cc:d5:d3:c7:e9:ae:
         48:42:1a:e5:8f:e5:63:52:68:71:da:8a:b1:93:a0:dd:96:50:
         41:a6:ce:da:a4:f5:9a:84:c2:3c:04:1b:8b:95:80:73:7f:3f:
         50:87:5a:3d:54:cb:77:f9:a9:df:f5:90:fd:e7:1d:e5:4e:f0:
         2c:27:81:6d
-----BEGIN CERTIFICATE-----
MIID+jCCAuKgAwIBAgIBATANBgkqhkiG9w0BAQsFADBOMQswCQYDVQQGEwJBVTEL
MAkGA1UECAwCUlUxITAfBgNVBAoMGEludGVybmV0IFdpZGdpdHMgUHR5IEx0ZDEP
MA0GA1UEAwwGV1NSIENBMB4XDTIxMTAxNDExMjEwNVoXDTIyMTAxNDExMjEwNVow
YDELMAkGA1UEBhMCQVUxEzARBgNVBAgMClNvbWUtU3RhdGUxITAfBgNVBAoMGElu
dGVybmV0IFdpZGdpdHMgUHR5IEx0ZDEZMBcGA1UEAwwQc2l0ZS51bmFrYmFycy5y
dTCCASIwDQYJKoZIhvcNAQEBBQADggEPADCCAQoCggEBAKRRa5NqjUl0x9eil/eD
8kXcUMTbgTyRrUgNkexZZZ6q0sUHvMSiqA2dtwEw7F7n0zFnEKV6v4x2xjWOEbY0
ofnlZnT+JbfVAyYwQhfi70UInMqMcSuPJ2wBPVOQLR6RmyDZnVnGDnnz7l6djeuF
zsf6hlcVB9cb32rCASt9HB2+V/XSvV6mRuUj9OIjnvlLMpAou1wP4GoYwHzGc7hZ
uoAvmTLRImSJDPMBNBBLT/QRY+vvQZGhgdVGiwrT0ttOH82yW2nKWUYz7JESfUnO
FDxoY05xEB2ylxGGQoyH5qLLyuFPMCqN88x/dmcZStiKC1eDnQCF6rru3dPT1fnV
fdsCAwEAAaOB0DCBzTAJBgNVHRMEAjAAMCwGCWCGSAGG+EIBDQQfFh1PcGVuU1NM
IEdlbmVyYXRlZCBDZXJ0aWZpY2F0ZTAdBgNVHQ4EFgQU0kHvC+uVUMdu68ueRbb1
Le/aUxYwcwYDVR0jBGwwaqFSpFAwTjELMAkGA1UEBhMCQVUxCzAJBgNVBAgMAlJV
MSEwHwYDVQQKDBhJbnRlcm5ldCBXaWRnaXRzIFB0eSBMdGQxDzANBgNVBAMMBldT
UiBDQYIUczUWnXH3CiHAKrnwUi+CTHz5leAwDQYJKoZIhvcNAQELBQADggEBADZQ
Hlkk4GQNFf9OCdugToXgHnqrsFVmDPpsYOtVmJmnVVturoJLxgoRQl3eFZv1dqEN
zMAD0ytithtgIaDQaU9khXYbkCRLLAt3Ss8shnoIjUjknBm9TI0d5i6g8kZmhDxX
xyl1x32afuRjqJbLBhEYwd3TRsiEXhrsC56dA1gdBuC9nG+HUh+hdUyPVmfccHGk
B2m1o9bvz4kt3rrD3qmHyDBxzjT3hrEotlFd+Em8kewOAinmTnI7F5/6ZzRSuMzV
08fprkhCGuWP5WNSaHHairGToN2WUEGmztqk9ZqEwjwEG4uVgHN/P1CHWj1Uy3f5
qd/1kP3nHeVO8CwngW0=
-----END CERTIFICATE-----
